; ModuleID = '32/79.c'
source_filename = "32/79.c"
target datalayout = "e-m:e-p270:32:32-p271:32:32-p272:64:64-i64:64-f80:128-n8:16:32:64-S128"
target triple = "x86_64-pc-linux-gnu"

@.str = private unnamed_addr constant [3 x i8] c"%d\00", align 1
@.str.1 = private unnamed_addr constant [3 x i8] c"%s\00", align 1
@.str.2 = private unnamed_addr constant [4 x i8] c"%s\0A\00", align 1

; Function Attrs: noinline nounwind uwtable
define dso_local i32 @main() #0 {
  %1 = alloca i32, align 4
  %2 = alloca [100 x [100 x i8]], align 16
  %3 = alloca [100 x [100 x i8]], align 16
  %4 = alloca i32, align 4
  %5 = alloca i32, align 4
  store i32 0, i32* %1, align 4
  %6 = call i32 (i8*, ...) @__isoc99_scanf(i8* getelementptr inbounds ([3 x i8], [3 x i8]* @.str, i64 0, i64 0), i32* %4)
  store i32 0, i32* %5, align 4
  br label %7

7:                                                ; preds = %22, %0
  %8 = load i32, i32* %5, align 4
  %9 = load i32, i32* %4, align 4
  %10 = icmp slt i32 %8, %9
  br i1 %10, label %11, label %25

11:                                               ; preds = %7
  %12 = load i32, i32* %5, align 4
  %13 = sext i32 %12 to i64
  %14 = getelementptr inbounds [100 x [100 x i8]], [100 x [100 x i8]]* %2, i64 0, i64 %13
  %15 = getelementptr inbounds [100 x i8], [100 x i8]* %14, i64 0, i64 0
  %16 = call i32 (i8*, ...) @__isoc99_scanf(i8* getelementptr inbounds ([3 x i8], [3 x i8]* @.str.1, i64 0, i64 0), i8* %15)
  %17 = load i32, i32* %5, align 4
  %18 = sext i32 %17 to i64
  %19 = getelementptr inbounds [100 x [100 x i8]], [100 x [100 x i8]]* %3, i64 0, i64 %18
  %20 = getelementptr inbounds [100 x i8], [100 x i8]* %19, i64 0, i64 0
  %21 = call i32 (i8*, ...) @__isoc99_scanf(i8* getelementptr inbounds ([3 x i8], [3 x i8]* @.str.1, i64 0, i64 0), i8* %20)
  br label %22

22:                                               ; preds = %11
  %23 = load i32, i32* %5, align 4
  %24 = add nsw i32 %23, 1
  store i32 %24, i32* %5, align 4
  br label %7

25:                                               ; preds = %7
  store i32 0, i32* %5, align 4
  br label %26

26:                                               ; preds = %39, %25
  %27 = load i32, i32* %5, align 4
  %28 = load i32, i32* %4, align 4
  %29 = icmp slt i32 %27, %28
  br i1 %29, label %30, label %42

30:                                               ; preds = %26
  %31 = load i32, i32* %5, align 4
  %32 = sext i32 %31 to i64
  %33 = getelementptr inbounds [100 x [100 x i8]], [100 x [100 x i8]]* %2, i64 0, i64 %32
  %34 = getelementptr inbounds [100 x i8], [100 x i8]* %33, i64 0, i64 0
  %35 = load i32, i32* %5, align 4
  %36 = sext i32 %35 to i64
  %37 = getelementptr inbounds [100 x [100 x i8]], [100 x [100 x i8]]* %3, i64 0, i64 %36
  %38 = getelementptr inbounds [100 x i8], [100 x i8]* %37, i64 0, i64 0
  call void @f(i8* %34, i8* %38)
  br label %39

39:                                               ; preds = %30
  %40 = load i32, i32* %5, align 4
  %41 = add nsw i32 %40, 1
  store i32 %41, i32* %5, align 4
  br label %26

42:                                               ; preds = %26
  ret i32 0
}

declare dso_local i32 @__isoc99_scanf(i8*, ...) #1

; Function Attrs: noinline nounwind uwtable
define dso_local void @f(i8* %0, i8* %1) #0 {
  %3 = alloca i8*, align 8
  %4 = alloca i8*, align 8
  %5 = alloca i32, align 4
  %6 = alloca i32, align 4
  %7 = alloca i32, align 4
  %8 = alloca i32, align 4
  %9 = alloca [100 x i8], align 16
  %10 = alloca [100 x i8], align 16
  store i8* %0, i8** %3, align 8
  store i8* %1, i8** %4, align 8
  %11 = getelementptr inbounds [100 x i8], [100 x i8]* %9, i64 0, i64 0
  %12 = load i8*, i8** %3, align 8
  %13 = call i8* @strcpy(i8* %11, i8* %12) #4
  %14 = load i8*, i8** %3, align 8
  %15 = call i64 @strlen(i8* %14) #5
  %16 = trunc i64 %15 to i32
  store i32 %16, i32* %5, align 4
  %17 = load i8*, i8** %4, align 8
  %18 = call i64 @strlen(i8* %17) #5
  %19 = trunc i64 %18 to i32
  store i32 %19, i32* %6, align 4
  store i32 1, i32* %7, align 4
  br label %20

20:                                               ; preds = %95, %2
  %21 = load i32, i32* %7, align 4
  %22 = load i32, i32* %6, align 4
  %23 = icmp sle i32 %21, %22
  br i1 %23, label %24, label %98

24:                                               ; preds = %20
  %25 = load i8*, i8** %3, align 8
  %26 = load i32, i32* %5, align 4
  %27 = load i32, i32* %7, align 4
  %28 = sub nsw i32 %26, %27
  %29 = sext i32 %28 to i64
  %30 = getelementptr inbounds i8, i8* %25, i64 %29
  %31 = load i8, i8* %30, align 1
  %32 = sext i8 %31 to i32
  %33 = load i8*, i8** %4, align 8
  %34 = load i32, i32* %6, align 4
  %35 = load i32, i32* %7, align 4
  %36 = sub nsw i32 %34, %35
  %37 = sext i32 %36 to i64
  %38 = getelementptr inbounds i8, i8* %33, i64 %37
  %39 = load i8, i8* %38, align 1
  %40 = sext i8 %39 to i32
  %41 = icmp slt i32 %32, %40
  br i1 %41, label %42, label %70

42:                                               ; preds = %24
  %43 = load i8*, i8** %3, align 8
  %44 = load i32, i32* %5, align 4
  %45 = load i32, i32* %7, align 4
  %46 = sub nsw i32 %44, %45
  %47 = sext i32 %46 to i64
  %48 = getelementptr inbounds i8, i8* %43, i64 %47
  %49 = load i8, i8* %48, align 1
  %50 = sext i8 %49 to i32
  %51 = add nsw i32 %50, 10
  %52 = trunc i32 %51 to i8
  store i8 %52, i8* %48, align 1
  %53 = load i8*, i8** %3, align 8
  %54 = load i32, i32* %5, align 4
  %55 = load i32, i32* %7, align 4
  %56 = sub nsw i32 %54, %55
  %57 = sub nsw i32 %56, 1
  %58 = sext i32 %57 to i64
  %59 = getelementptr inbounds i8, i8* %53, i64 %58
  %60 = load i8, i8* %59, align 1
  %61 = sext i8 %60 to i32
  %62 = sub nsw i32 %61, 1
  %63 = trunc i32 %62 to i8
  store i8 %63, i8* %59, align 1
  %64 = load i32, i32* %5, align 4
  %65 = load i32, i32* %7, align 4
  %66 = sub nsw i32 %64, %65
  %67 = sub nsw i32 %66, 1
  %68 = sext i32 %67 to i64
  %69 = getelementptr inbounds [100 x i8], [100 x i8]* %9, i64 0, i64 %68
  store i8 %63, i8* %69, align 1
  br label %70

70:                                               ; preds = %42, %24
  %71 = load i8*, i8** %3, align 8
  %72 = load i32, i32* %5, align 4
  %73 = load i32, i32* %7, align 4
  %74 = sub nsw i32 %72, %73
  %75 = sext i32 %74 to i64
  %76 = getelementptr inbounds i8, i8* %71, i64 %75
  %77 = load i8, i8* %76, align 1
  %78 = sext i8 %77 to i32
  %79 = load i8*, i8** %4, align 8
  %80 = load i32, i32* %6, align 4
  %81 = load i32, i32* %7, align 4
  %82 = sub nsw i32 %80, %81
  %83 = sext i32 %82 to i64
  %84 = getelementptr inbounds i8, i8* %79, i64 %83
  %85 = load i8, i8* %84, align 1
  %86 = sext i8 %85 to i32
  %87 = sub nsw i32 %78, %86
  %88 = add nsw i32 %87, 48
  %89 = trunc i32 %88 to i8
  %90 = load i32, i32* %5, align 4
  %91 = load i32, i32* %7, align 4
  %92 = sub nsw i32 %90, %91
  %93 = sext i32 %92 to i64
  %94 = getelementptr inbounds [100 x i8], [100 x i8]* %9, i64 0, i64 %93
  store i8 %89, i8* %94, align 1
  br label %95

95:                                               ; preds = %70
  %96 = load i32, i32* %7, align 4
  %97 = add nsw i32 %96, 1
  store i32 %97, i32* %7, align 4
  br label %20

98:                                               ; preds = %20
  store i32 0, i32* %7, align 4
  br label %99

99:                                               ; preds = %132, %98
  %100 = load i32, i32* %7, align 4
  %101 = load i32, i32* %5, align 4
  %102 = icmp slt i32 %100, %101
  br i1 %102, label %103, label %135

103:                                              ; preds = %99
  %104 = load i32, i32* %7, align 4
  %105 = sext i32 %104 to i64
  %106 = getelementptr inbounds [100 x i8], [100 x i8]* %9, i64 0, i64 %105
  %107 = load i8, i8* %106, align 1
  %108 = sext i8 %107 to i32
  %109 = icmp ne i32 %108, 48
  br i1 %109, label %110, label %131

110:                                              ; preds = %103
  store i32 0, i32* %8, align 4
  br label %111

111:                                              ; preds = %127, %110
  %112 = load i32, i32* %8, align 4
  %113 = load i32, i32* %5, align 4
  %114 = load i32, i32* %7, align 4
  %115 = sub nsw i32 %113, %114
  %116 = icmp sle i32 %112, %115
  br i1 %116, label %117, label %130

117:                                              ; preds = %111
  %118 = load i32, i32* %7, align 4
  %119 = load i32, i32* %8, align 4
  %120 = add nsw i32 %118, %119
  %121 = sext i32 %120 to i64
  %122 = getelementptr inbounds [100 x i8], [100 x i8]* %9, i64 0, i64 %121
  %123 = load i8, i8* %122, align 1
  %124 = load i32, i32* %8, align 4
  %125 = sext i32 %124 to i64
  %126 = getelementptr inbounds [100 x i8], [100 x i8]* %10, i64 0, i64 %125
  store i8 %123, i8* %126, align 1
  br label %127

127:                                              ; preds = %117
  %128 = load i32, i32* %8, align 4
  %129 = add nsw i32 %128, 1
  store i32 %129, i32* %8, align 4
  br label %111

130:                                              ; preds = %111
  br label %135

131:                                              ; preds = %103
  br label %132

132:                                              ; preds = %131
  %133 = load i32, i32* %7, align 4
  %134 = add nsw i32 %133, 1
  store i32 %134, i32* %7, align 4
  br label %99

135:                                              ; preds = %130, %99
  %136 = getelementptr inbounds [100 x i8], [100 x i8]* %10, i64 0, i64 0
  %137 = call i32 (i8*, ...) @printf(i8* getelementptr inbounds ([4 x i8], [4 x i8]* @.str.2, i64 0, i64 0), i8* %136)
  ret void
}

; Function Attrs: nounwind
declare dso_local i8* @strcpy(i8*, i8*) #2

; Function Attrs: nounwind readonly
declare dso_local i64 @strlen(i8*) #3

declare dso_local i32 @printf(i8*, ...) #1


!llvm.module.flags = !{!0}
!llvm.ident = !{!1}

!0 = !{i32 1, !"wchar_size", i32 4}
!1 = !{!"clang version 10.0.0-4ubuntu1 "}
