; ModuleID = 'source-C-CXX/31/79.c'
source_filename = "source-C-CXX/31/79.c"
target datalayout = "e-m:e-p270:32:32-p271:32:32-p272:64:64-i64:64-f80:128-n8:16:32:64-S128"
target triple = "x86_64-pc-linux-gnu"

@.str = private unnamed_addr constant [3 x i8] c"%d\00", align 1
@.str.1 = private unnamed_addr constant [3 x i8] c"%s\00", align 1

; Function Attrs: nofree nounwind sspstrong uwtable
define dso_local i32 @main() local_unnamed_addr #0 {
  %1 = alloca [100 x [100 x i8]], align 16
  %2 = alloca [100 x [100 x i8]], align 16
  %3 = alloca i32, align 4
  %4 = getelementptr inbounds [100 x [100 x i8]], [100 x [100 x i8]]* %1, i64 0, i64 0, i64 0
  call void @llvm.lifetime.start.p0i8(i64 10000, i8* nonnull %4) #7
  %5 = getelementptr inbounds [100 x [100 x i8]], [100 x [100 x i8]]* %2, i64 0, i64 0, i64 0
  call void @llvm.lifetime.start.p0i8(i64 10000, i8* nonnull %5) #7
  %6 = bitcast i32* %3 to i8*
  call void @llvm.lifetime.start.p0i8(i64 4, i8* nonnull %6) #7
  %7 = call i32 (i8*, ...) @__isoc99_scanf(i8* getelementptr inbounds ([3 x i8], [3 x i8]* @.str, i64 0, i64 0), i32* nonnull %3)
  %8 = load i32, i32* %3, align 4, !tbaa !5
  %9 = icmp sgt i32 %8, 0
  br i1 %9, label %12, label %30

10:                                               ; preds = %12
  %11 = icmp sgt i32 %19, 0
  br i1 %11, label %22, label %30

12:                                               ; preds = %0, %12
  %13 = phi i64 [ %18, %12 ], [ 0, %0 ]
  %14 = getelementptr inbounds [100 x [100 x i8]], [100 x [100 x i8]]* %1, i64 0, i64 %13, i64 0
  %15 = call i32 (i8*, ...) @__isoc99_scanf(i8* getelementptr inbounds ([3 x i8], [3 x i8]* @.str.1, i64 0, i64 0), i8* nonnull %14)
  %16 = getelementptr inbounds [100 x [100 x i8]], [100 x [100 x i8]]* %2, i64 0, i64 %13, i64 0
  %17 = call i32 (i8*, ...) @__isoc99_scanf(i8* getelementptr inbounds ([3 x i8], [3 x i8]* @.str.1, i64 0, i64 0), i8* nonnull %16)
  %18 = add nuw nsw i64 %13, 1
  %19 = load i32, i32* %3, align 4, !tbaa !5
  %20 = sext i32 %19 to i64
  %21 = icmp slt i64 %18, %20
  br i1 %21, label %12, label %10, !llvm.loop !9

22:                                               ; preds = %10, %22
  %23 = phi i64 [ %26, %22 ], [ 0, %10 ]
  %24 = getelementptr inbounds [100 x [100 x i8]], [100 x [100 x i8]]* %1, i64 0, i64 %23, i64 0
  %25 = getelementptr inbounds [100 x [100 x i8]], [100 x [100 x i8]]* %2, i64 0, i64 %23, i64 0
  call void @f(i8* nonnull %24, i8* nonnull %25)
  %26 = add nuw nsw i64 %23, 1
  %27 = load i32, i32* %3, align 4, !tbaa !5
  %28 = sext i32 %27 to i64
  %29 = icmp slt i64 %26, %28
  br i1 %29, label %22, label %30, !llvm.loop !11

30:                                               ; preds = %22, %0, %10
  call void @llvm.lifetime.end.p0i8(i64 4, i8* nonnull %6) #7
  call void @llvm.lifetime.end.p0i8(i64 10000, i8* nonnull %5) #7
  call void @llvm.lifetime.end.p0i8(i64 10000, i8* nonnull %4) #7
  ret i32 0
}

; Function Attrs: argmemonly mustprogress nofree nosync nounwind willreturn
declare void @llvm.lifetime.start.p0i8(i64 immarg, i8* nocapture) #1

; Function Attrs: nofree nounwind
declare noundef i32 @__isoc99_scanf(i8* nocapture noundef readonly, ...) local_unnamed_addr #2

; Function Attrs: nofree nounwind sspstrong uwtable
define dso_local void @f(i8* nocapture %0, i8* nocapture readonly %1) local_unnamed_addr #0 {
  %3 = alloca [100 x i8], align 16
  %4 = alloca [100 x i8], align 16
  %5 = getelementptr inbounds [100 x i8], [100 x i8]* %4, i64 0, i64 0
  %6 = getelementptr inbounds [100 x i8], [100 x i8]* %3, i64 0, i64 0
  call void @llvm.lifetime.start.p0i8(i64 100, i8* nonnull %6) #7
  %7 = getelementptr inbounds [100 x i8], [100 x i8]* %4, i64 0, i64 0
  call void @llvm.lifetime.start.p0i8(i64 100, i8* nonnull %7) #7
  %8 = call i8* @strcpy(i8* noundef nonnull %6, i8* noundef nonnull dereferenceable(1) %0) #7
  %9 = call i64 @strlen(i8* noundef nonnull dereferenceable(1) %0) #8
  %10 = trunc i64 %9 to i32
  %11 = call i64 @strlen(i8* noundef nonnull dereferenceable(1) %1) #8
  %12 = trunc i64 %11 to i32
  %13 = icmp slt i32 %12, 1
  br i1 %13, label %21, label %14

14:                                               ; preds = %2
  %15 = shl i64 %9, 32
  %16 = ashr exact i64 %15, 32
  %17 = shl i64 %11, 32
  %18 = ashr exact i64 %17, 32
  %19 = add i64 %11, 1
  %20 = and i64 %19, 4294967295
  br label %25

21:                                               ; preds = %42, %2
  %22 = icmp sgt i32 %10, 0
  br i1 %22, label %23, label %66

23:                                               ; preds = %21
  %24 = and i64 %9, 4294967295
  br label %50

25:                                               ; preds = %14, %42
  %26 = phi i64 [ 1, %14 ], [ %48, %42 ]
  %27 = sub nsw i64 %16, %26
  %28 = getelementptr inbounds i8, i8* %0, i64 %27
  %29 = load i8, i8* %28, align 1, !tbaa !12
  %30 = sub nsw i64 %18, %26
  %31 = getelementptr inbounds i8, i8* %1, i64 %30
  %32 = load i8, i8* %31, align 1, !tbaa !12
  %33 = icmp slt i8 %29, %32
  br i1 %33, label %34, label %42

34:                                               ; preds = %25
  %35 = add i8 %29, 10
  store i8 %35, i8* %28, align 1, !tbaa !12
  %36 = add nsw i64 %27, -1
  %37 = getelementptr inbounds i8, i8* %0, i64 %36
  %38 = load i8, i8* %37, align 1, !tbaa !12
  %39 = add i8 %38, -1
  store i8 %39, i8* %37, align 1, !tbaa !12
  %40 = getelementptr inbounds [100 x i8], [100 x i8]* %3, i64 0, i64 %36
  store i8 %39, i8* %40, align 1, !tbaa !12
  %41 = load i8, i8* %31, align 1, !tbaa !12
  br label %42

42:                                               ; preds = %34, %25
  %43 = phi i8 [ %41, %34 ], [ %32, %25 ]
  %44 = phi i8 [ %35, %34 ], [ %29, %25 ]
  %45 = add i8 %44, 48
  %46 = sub i8 %45, %43
  %47 = getelementptr inbounds [100 x i8], [100 x i8]* %3, i64 0, i64 %27
  store i8 %46, i8* %47, align 1, !tbaa !12
  %48 = add nuw nsw i64 %26, 1
  %49 = icmp eq i64 %48, %20
  br i1 %49, label %21, label %25, !llvm.loop !13

50:                                               ; preds = %23, %63
  %51 = phi i64 [ 0, %23 ], [ %64, %63 ]
  %52 = getelementptr [100 x i8], [100 x i8]* %3, i64 0, i64 %51
  %53 = load i8, i8* %52, align 1, !tbaa !12
  %54 = icmp eq i8 %53, 48
  br i1 %54, label %63, label %55

55:                                               ; preds = %50
  %56 = trunc i64 %51 to i32
  %57 = icmp slt i32 %10, %56
  br i1 %57, label %66, label %58

58:                                               ; preds = %55
  %59 = getelementptr [100 x i8], [100 x i8]* %3, i64 0, i64 %51
  %60 = add i64 %9, 1
  %61 = sub i64 %60, %51
  %62 = and i64 %61, 4294967295
  call void @llvm.memcpy.p0i8.p0i8.i64(i8* nonnull align 16 %5, i8* nonnull align 1 %59, i64 %62, i1 false)
  br label %66

63:                                               ; preds = %50
  %64 = add nuw nsw i64 %51, 1
  %65 = icmp eq i64 %64, %24
  br i1 %65, label %66, label %50, !llvm.loop !14

66:                                               ; preds = %63, %58, %21, %55
  %67 = call i32 @puts(i8* nonnull %7)
  call void @llvm.lifetime.end.p0i8(i64 100, i8* nonnull %7) #7
  call void @llvm.lifetime.end.p0i8(i64 100, i8* nonnull %6) #7
  ret void
}

; Function Attrs: argmemonly mustprogress nofree nosync nounwind willreturn
declare void @llvm.lifetime.end.p0i8(i64 immarg, i8* nocapture) #1

; Function Attrs: argmemonly mustprogress nofree nounwind willreturn
declare i8* @strcpy(i8* noalias returned writeonly, i8* noalias nocapture readonly) local_unnamed_addr #3

; Function Attrs: argmemonly mustprogress nofree nounwind readonly willreturn
declare i64 @strlen(i8* nocapture) local_unnamed_addr #4

; Function Attrs: nofree nounwind
declare noundef i32 @puts(i8* nocapture noundef readonly) local_unnamed_addr #5

; Function Attrs: argmemonly nofree nounwind willreturn
declare void @llvm.memcpy.p0i8.p0i8.i64(i8* noalias nocapture writeonly, i8* noalias nocapture readonly, i64, i1 immarg) #6


!llvm.module.flags = !{!0, !1, !2, !3}
!llvm.ident = !{!4}

!0 = !{i32 1, !"wchar_size", i32 4}
!1 = !{i32 7, !"PIC Level", i32 2}
!2 = !{i32 7, !"PIE Level", i32 2}
!3 = !{i32 7, !"uwtable", i32 1}
!4 = !{!"clang version 13.0.0"}
!5 = !{!6, !6, i64 0}
!6 = !{!"int", !7, i64 0}
!7 = !{!"omnipotent char", !8, i64 0}
!8 = !{!"Simple C/C++ TBAA"}
!9 = distinct !{!9, !10}
!10 = !{!"llvm.loop.mustprogress"}
!11 = distinct !{!11, !10}
!12 = !{!7, !7, i64 0}
!13 = distinct !{!13, !10}
!14 = distinct !{!14, !10}
